target datalayout = "e-m:e-p270:32:32-p271:32:32-p272:64:64-i64:64-i128:128-f80:128-n8:16:32:64-S128"
target triple = "x86_64-pc-linux-gnu"

%struct._object = type { %union.anon, ptr }
%union.anon = type { i64 }
%struct.zlibstate = type { ptr, ptr, ptr, ptr }
%struct.z_stream_s = type { ptr, i32, i64, ptr, i32, i64, ptr, ptr, ptr, ptr, ptr, i32, i64, i64 }
%struct.anon = type { i32, i32 }
%struct.compobject = type { %struct._object, %struct.z_stream_s, ptr, ptr, i8, i8, ptr, ptr }

@PyExc_MemoryError = external global ptr, align 8
@.str.16 = private unnamed_addr constant [25 x i8] c"library version mismatch\00", align 1
@.str.17 = private unnamed_addr constant [31 x i8] c"incomplete or truncated stream\00", align 1
@.str.18 = private unnamed_addr constant [26 x i8] c"inconsistent stream state\00", align 1
@.str.19 = private unnamed_addr constant [19 x i8] c"invalid input data\00", align 1
@.str.20 = private unnamed_addr constant [12 x i8] c"Error %d %s\00", align 1
@.str.21 = private unnamed_addr constant [20 x i8] c"Error %d %s: %.200s\00", align 1
@PyExc_ValueError = external global ptr, align 8
@.str.30 = private unnamed_addr constant [45 x i8] c"Can't allocate memory for compression object\00", align 1
@.str.83 = private unnamed_addr constant [26 x i8] c"Inconsistent stream state\00", align 1
@.str.84 = private unnamed_addr constant [33 x i8] c"while copying compression object\00", align 1

; Function Attrs: alwaysinline nounwind uwtable
define internal i32 @_Py_IsImmortal(ptr noundef %0) #5 {
  %2 = alloca ptr, align 8
  store ptr %0, ptr %2, align 8, !tbaa !3
  %3 = load ptr, ptr %2, align 8, !tbaa !3
  %4 = getelementptr inbounds nuw %struct._object, ptr %3, i32 0, i32 0
  %5 = getelementptr inbounds nuw %struct.anon, ptr %4, i32 0, i32 0
  %6 = load i32, ptr %5, align 8, !tbaa !60
  %7 = icmp slt i32 %6, 0
  %8 = zext i1 %7 to i32
  ret i32 %8
}

; Function Attrs: inlinehint nounwind uwtable
define internal void @Py_XINCREF(ptr noundef %0) #4 {
  %2 = alloca ptr, align 8
  store ptr %0, ptr %2, align 8, !tbaa !3
  %3 = load ptr, ptr %2, align 8, !tbaa !3
  %4 = icmp ne ptr %3, null
  br i1 %4, label %5, label %7

5:                                                ; preds = %1
  %6 = load ptr, ptr %2, align 8, !tbaa !3
  call void @Py_INCREF(ptr noundef %6)
  br label %7

7:                                                ; preds = %5, %1
  ret void
}

; Function Attrs: alwaysinline nounwind uwtable
define internal void @Py_DECREF(ptr noundef %0) #5 {
  %2 = alloca ptr, align 8
  store ptr %0, ptr %2, align 8, !tbaa !3
  %3 = load ptr, ptr %2, align 8, !tbaa !3
  %4 = call i32 @_Py_IsImmortal(ptr noundef %3)
  %5 = icmp ne i32 %4, 0
  br i1 %5, label %6, label %7

6:                                                ; preds = %1
  br label %16

7:                                                ; preds = %1
  %8 = load ptr, ptr %2, align 8, !tbaa !3
  %9 = getelementptr inbounds nuw %struct._object, ptr %8, i32 0, i32 0
  %10 = getelementptr inbounds nuw %struct.anon, ptr %9, i32 0, i32 0
  %11 = load i32, ptr %10, align 8, !tbaa !60
  %12 = add i32 %11, -1
  store i32 %12, ptr %10, align 8, !tbaa !60
  %13 = icmp eq i32 %12, 0
  br i1 %13, label %14, label %16

14:                                               ; preds = %7
  %15 = load ptr, ptr %2, align 8, !tbaa !3
  call void @_Py_Dealloc(ptr noundef %15)
  br label %16

16:                                               ; preds = %6, %14, %7
  ret void
}

; Function Attrs: alwaysinline nounwind uwtable
define internal void @Py_INCREF(ptr noundef %0) #5 {
  %2 = alloca ptr, align 8
  %3 = alloca i32, align 4
  %4 = alloca i32, align 4
  store ptr %0, ptr %2, align 8, !tbaa !3
  call void @llvm.lifetime.start.p0(i64 4, ptr %3) #7
  %5 = load ptr, ptr %2, align 8, !tbaa !3
  %6 = getelementptr inbounds nuw %struct._object, ptr %5, i32 0, i32 0
  %7 = getelementptr inbounds nuw %struct.anon, ptr %6, i32 0, i32 0
  %8 = load i32, ptr %7, align 8, !tbaa !60
  store i32 %8, ptr %3, align 4, !tbaa !12
  %9 = load i32, ptr %3, align 4, !tbaa !12
  %10 = icmp slt i32 %9, 0
  br i1 %10, label %11, label %12

11:                                               ; preds = %1
  store i32 1, ptr %4, align 4
  br label %18

12:                                               ; preds = %1
  %13 = load i32, ptr %3, align 4, !tbaa !12
  %14 = add i32 %13, 1
  %15 = load ptr, ptr %2, align 8, !tbaa !3
  %16 = getelementptr inbounds nuw %struct._object, ptr %15, i32 0, i32 0
  %17 = getelementptr inbounds nuw %struct.anon, ptr %16, i32 0, i32 0
  store i32 %14, ptr %17, align 8, !tbaa !60
  store i32 0, ptr %4, align 4
  br label %18

18:                                               ; preds = %12, %11
  call void @llvm.lifetime.end.p0(i64 4, ptr %3) #7
  %19 = load i32, ptr %4, align 4
  switch i32 %19, label %21 [
    i32 0, label %20
    i32 1, label %20
  ]

20:                                               ; preds = %18, %18
  ret void

21:                                               ; preds = %18
  unreachable
}

; Function Attrs: inlinehint nounwind uwtable
define internal ptr @_Py_XNewRef(ptr noundef %0) #4 {
  %2 = alloca ptr, align 8
  store ptr %0, ptr %2, align 8, !tbaa !3
  %3 = load ptr, ptr %2, align 8, !tbaa !3
  call void @Py_XINCREF(ptr noundef %3)
  %4 = load ptr, ptr %2, align 8, !tbaa !3
  ret ptr %4
}

; Function Attrs: inlinehint nounwind uwtable
define internal void @Py_XDECREF(ptr noundef %0) #4 {
  %2 = alloca ptr, align 8
  store ptr %0, ptr %2, align 8, !tbaa !3
  %3 = load ptr, ptr %2, align 8, !tbaa !3
  %4 = icmp ne ptr %3, null
  br i1 %4, label %5, label %7

5:                                                ; preds = %1
  %6 = load ptr, ptr %2, align 8, !tbaa !3
  call void @Py_DECREF(ptr noundef %6)
  br label %7

7:                                                ; preds = %5, %1
  ret void
}

; Function Attrs: inlinehint nounwind uwtable
define internal ptr @_Py_NewRef(ptr noundef %0) #4 {
  %2 = alloca ptr, align 8
  store ptr %0, ptr %2, align 8, !tbaa !3
  %3 = load ptr, ptr %2, align 8, !tbaa !3
  call void @Py_INCREF(ptr noundef %3)
  %4 = load ptr, ptr %2, align 8, !tbaa !3
  ret ptr %4
}

; Function Attrs: nounwind uwtable
define internal void @zlib_error(ptr noundef %0, ptr noundef byval(%struct.z_stream_s) align 8 %1, i32 noundef %2, ptr noundef %3) #0 {
  %5 = alloca ptr, align 8
  %6 = alloca i32, align 4
  %7 = alloca ptr, align 8
  %8 = alloca ptr, align 8
  store ptr %0, ptr %5, align 8, !tbaa !8
  store i32 %2, ptr %6, align 4, !tbaa !12
  store ptr %3, ptr %7, align 8, !tbaa !30
  call void @llvm.lifetime.start.p0(i64 8, ptr %8) #7
  store ptr null, ptr %8, align 8, !tbaa !30
  %9 = load i32, ptr %6, align 4, !tbaa !12
  %10 = icmp eq i32 %9, -6
  br i1 %10, label %11, label %12

11:                                               ; preds = %4
  store ptr @.str.16, ptr %8, align 8, !tbaa !30
  br label %12

12:                                               ; preds = %11, %4
  %13 = load ptr, ptr %8, align 8, !tbaa !30
  %14 = icmp eq ptr %13, null
  br i1 %14, label %15, label %18

15:                                               ; preds = %12
  %16 = getelementptr inbounds nuw %struct.z_stream_s, ptr %1, i32 0, i32 6
  %17 = load ptr, ptr %16, align 8, !tbaa !51
  store ptr %17, ptr %8, align 8, !tbaa !30
  br label %18

18:                                               ; preds = %15, %12
  %19 = load ptr, ptr %8, align 8, !tbaa !30
  %20 = icmp eq ptr %19, null
  br i1 %20, label %21, label %27

21:                                               ; preds = %18
  %22 = load i32, ptr %6, align 4, !tbaa !12
  switch i32 %22, label %26 [
    i32 -5, label %23
    i32 -2, label %24
    i32 -3, label %25
  ]

23:                                               ; preds = %21
  store ptr @.str.17, ptr %8, align 8, !tbaa !30
  br label %26

24:                                               ; preds = %21
  store ptr @.str.18, ptr %8, align 8, !tbaa !30
  br label %26

25:                                               ; preds = %21
  store ptr @.str.19, ptr %8, align 8, !tbaa !30
  br label %26

26:                                               ; preds = %21, %25, %24, %23
  br label %27

27:                                               ; preds = %26, %18
  %28 = load ptr, ptr %8, align 8, !tbaa !30
  %29 = icmp eq ptr %28, null
  br i1 %29, label %30, label %37

30:                                               ; preds = %27
  %31 = load ptr, ptr %5, align 8, !tbaa !8
  %32 = getelementptr inbounds nuw %struct.zlibstate, ptr %31, i32 0, i32 3
  %33 = load ptr, ptr %32, align 8, !tbaa !16
  %34 = load i32, ptr %6, align 4, !tbaa !12
  %35 = load ptr, ptr %7, align 8, !tbaa !30
  %36 = call ptr (ptr, ptr, ...) @PyErr_Format(ptr noundef %33, ptr noundef @.str.20, i32 noundef %34, ptr noundef %35)
  br label %45

37:                                               ; preds = %27
  %38 = load ptr, ptr %5, align 8, !tbaa !8
  %39 = getelementptr inbounds nuw %struct.zlibstate, ptr %38, i32 0, i32 3
  %40 = load ptr, ptr %39, align 8, !tbaa !16
  %41 = load i32, ptr %6, align 4, !tbaa !12
  %42 = load ptr, ptr %7, align 8, !tbaa !30
  %43 = load ptr, ptr %8, align 8, !tbaa !30
  %44 = call ptr (ptr, ptr, ...) @PyErr_Format(ptr noundef %40, ptr noundef @.str.21, i32 noundef %41, ptr noundef %42, ptr noundef %43)
  br label %45

45:                                               ; preds = %37, %30
  call void @llvm.lifetime.end.p0(i64 8, ptr %8) #7
  ret void
}

; Function Attrs: nounwind uwtable
define internal ptr @zlib_Compress_copy_impl(ptr noundef %0, ptr noundef %1) #0 {
  %3 = alloca ptr, align 8
  %4 = alloca ptr, align 8
  %5 = alloca ptr, align 8
  %6 = alloca ptr, align 8
  %7 = alloca ptr, align 8
  %8 = alloca i32, align 4
  %9 = alloca ptr, align 8
  %10 = alloca i32, align 4
  %11 = alloca ptr, align 8
  %12 = alloca ptr, align 8
  %13 = alloca ptr, align 8
  %14 = alloca ptr, align 8
  %15 = alloca ptr, align 8
  %16 = alloca ptr, align 8
  store ptr %0, ptr %4, align 8, !tbaa !8
  store ptr %1, ptr %5, align 8, !tbaa !19
  call void @llvm.lifetime.start.p0(i64 8, ptr %6) #7
  %17 = load ptr, ptr %5, align 8, !tbaa !19
  %18 = call ptr @PyType_GetModuleState(ptr noundef %17)
  store ptr %18, ptr %6, align 8, !tbaa !8
  call void @llvm.lifetime.start.p0(i64 8, ptr %7) #7
  %19 = load ptr, ptr %6, align 8, !tbaa !8
  %20 = getelementptr inbounds nuw %struct.zlibstate, ptr %19, i32 0, i32 0
  %21 = load ptr, ptr %20, align 8, !tbaa !9
  %22 = call ptr @newcompobject(ptr noundef %21)
  store ptr %22, ptr %7, align 8, !tbaa !8
  %23 = load ptr, ptr %7, align 8, !tbaa !8
  %24 = icmp ne ptr %23, null
  br i1 %24, label %26, label %25

25:                                               ; preds = %2
  store ptr null, ptr %3, align 8
  store i32 1, ptr %8, align 4
  br label %115

26:                                               ; preds = %2
  br label %27

27:                                               ; preds = %26
  %28 = load ptr, ptr %4, align 8, !tbaa !8
  %29 = getelementptr inbounds nuw %struct.compobject, ptr %28, i32 0, i32 7
  %30 = load ptr, ptr %29, align 8, !tbaa !76
  %31 = call i32 @PyThread_acquire_lock(ptr noundef %30, i32 noundef 0)
  %32 = icmp ne i32 %31, 0
  br i1 %32, label %40, label %33

33:                                               ; preds = %27
  call void @llvm.lifetime.start.p0(i64 8, ptr %9) #7
  %34 = call ptr @PyEval_SaveThread()
  store ptr %34, ptr %9, align 8, !tbaa !31
  %35 = load ptr, ptr %4, align 8, !tbaa !8
  %36 = getelementptr inbounds nuw %struct.compobject, ptr %35, i32 0, i32 7
  %37 = load ptr, ptr %36, align 8, !tbaa !76
  %38 = call i32 @PyThread_acquire_lock(ptr noundef %37, i32 noundef 1)
  %39 = load ptr, ptr %9, align 8, !tbaa !31
  call void @PyEval_RestoreThread(ptr noundef %39)
  call void @llvm.lifetime.end.p0(i64 8, ptr %9) #7
  br label %40

40:                                               ; preds = %33, %27
  br label %41

41:                                               ; preds = %40
  br label %42

42:                                               ; preds = %41
  call void @llvm.lifetime.start.p0(i64 4, ptr %10) #7
  %43 = load ptr, ptr %7, align 8, !tbaa !8
  %44 = getelementptr inbounds nuw %struct.compobject, ptr %43, i32 0, i32 1
  %45 = load ptr, ptr %4, align 8, !tbaa !8
  %46 = getelementptr inbounds nuw %struct.compobject, ptr %45, i32 0, i32 1
  %47 = call i32 @deflateCopy(ptr noundef %44, ptr noundef %46)
  store i32 %47, ptr %10, align 4, !tbaa !12
  %48 = load i32, ptr %10, align 4, !tbaa !12
  switch i32 %48, label %53 [
    i32 0, label %58
    i32 -2, label %49
    i32 -4, label %51
  ]

49:                                               ; preds = %42
  %50 = load ptr, ptr @PyExc_ValueError, align 8, !tbaa !3
  call void @PyErr_SetString(ptr noundef %50, ptr noundef @.str.83)
  br label %109

51:                                               ; preds = %42
  %52 = load ptr, ptr @PyExc_MemoryError, align 8, !tbaa !3
  call void @PyErr_SetString(ptr noundef %52, ptr noundef @.str.30)
  br label %109

53:                                               ; preds = %42
  %54 = load ptr, ptr %6, align 8, !tbaa !8
  %55 = load ptr, ptr %4, align 8, !tbaa !8
  %56 = getelementptr inbounds nuw %struct.compobject, ptr %55, i32 0, i32 1
  %57 = load i32, ptr %10, align 4, !tbaa !12
  call void @zlib_error(ptr noundef %54, ptr noundef byval(%struct.z_stream_s) align 8 %56, i32 noundef %57, ptr noundef @.str.84)
  br label %109

58:                                               ; preds = %42
  br label %59

59:                                               ; preds = %58
  call void @llvm.lifetime.start.p0(i64 8, ptr %11) #7
  %60 = load ptr, ptr %7, align 8, !tbaa !8
  %61 = getelementptr inbounds nuw %struct.compobject, ptr %60, i32 0, i32 2
  store ptr %61, ptr %11, align 8, !tbaa !20
  call void @llvm.lifetime.start.p0(i64 8, ptr %12) #7
  %62 = load ptr, ptr %11, align 8, !tbaa !20
  %63 = load ptr, ptr %62, align 8, !tbaa !3
  store ptr %63, ptr %12, align 8, !tbaa !3
  %64 = load ptr, ptr %4, align 8, !tbaa !8
  %65 = getelementptr inbounds nuw %struct.compobject, ptr %64, i32 0, i32 2
  %66 = load ptr, ptr %65, align 8, !tbaa !74
  %67 = call ptr @_Py_NewRef(ptr noundef %66)
  %68 = load ptr, ptr %11, align 8, !tbaa !20
  store ptr %67, ptr %68, align 8, !tbaa !3
  %69 = load ptr, ptr %12, align 8, !tbaa !3
  call void @Py_XDECREF(ptr noundef %69)
  call void @llvm.lifetime.end.p0(i64 8, ptr %12) #7
  call void @llvm.lifetime.end.p0(i64 8, ptr %11) #7
  br label %70

70:                                               ; preds = %59
  br label %71

71:                                               ; preds = %70
  br label %72

72:                                               ; preds = %71
  call void @llvm.lifetime.start.p0(i64 8, ptr %13) #7
  %73 = load ptr, ptr %7, align 8, !tbaa !8
  %74 = getelementptr inbounds nuw %struct.compobject, ptr %73, i32 0, i32 3
  store ptr %74, ptr %13, align 8, !tbaa !20
  call void @llvm.lifetime.start.p0(i64 8, ptr %14) #7
  %75 = load ptr, ptr %13, align 8, !tbaa !20
  %76 = load ptr, ptr %75, align 8, !tbaa !3
  store ptr %76, ptr %14, align 8, !tbaa !3
  %77 = load ptr, ptr %4, align 8, !tbaa !8
  %78 = getelementptr inbounds nuw %struct.compobject, ptr %77, i32 0, i32 3
  %79 = load ptr, ptr %78, align 8, !tbaa !75
  %80 = call ptr @_Py_NewRef(ptr noundef %79)
  %81 = load ptr, ptr %13, align 8, !tbaa !20
  store ptr %80, ptr %81, align 8, !tbaa !3
  %82 = load ptr, ptr %14, align 8, !tbaa !3
  call void @Py_XDECREF(ptr noundef %82)
  call void @llvm.lifetime.end.p0(i64 8, ptr %14) #7
  call void @llvm.lifetime.end.p0(i64 8, ptr %13) #7
  br label %83

83:                                               ; preds = %72
  br label %84

84:                                               ; preds = %83
  br label %85

85:                                               ; preds = %84
  call void @llvm.lifetime.start.p0(i64 8, ptr %15) #7
  %86 = load ptr, ptr %7, align 8, !tbaa !8
  %87 = getelementptr inbounds nuw %struct.compobject, ptr %86, i32 0, i32 6
  store ptr %87, ptr %15, align 8, !tbaa !20
  call void @llvm.lifetime.start.p0(i64 8, ptr %16) #7
  %88 = load ptr, ptr %15, align 8, !tbaa !20
  %89 = load ptr, ptr %88, align 8, !tbaa !3
  store ptr %89, ptr %16, align 8, !tbaa !3
  %90 = load ptr, ptr %4, align 8, !tbaa !8
  %91 = getelementptr inbounds nuw %struct.compobject, ptr %90, i32 0, i32 6
  %92 = load ptr, ptr %91, align 8, !tbaa !73
  %93 = call ptr @_Py_XNewRef(ptr noundef %92)
  %94 = load ptr, ptr %15, align 8, !tbaa !20
  store ptr %93, ptr %94, align 8, !tbaa !3
  %95 = load ptr, ptr %16, align 8, !tbaa !3
  call void @Py_XDECREF(ptr noundef %95)
  call void @llvm.lifetime.end.p0(i64 8, ptr %16) #7
  call void @llvm.lifetime.end.p0(i64 8, ptr %15) #7
  br label %96

96:                                               ; preds = %85
  br label %97

97:                                               ; preds = %96
  %98 = load ptr, ptr %4, align 8, !tbaa !8
  %99 = getelementptr inbounds nuw %struct.compobject, ptr %98, i32 0, i32 4
  %100 = load i8, ptr %99, align 8, !tbaa !72
  %101 = load ptr, ptr %7, align 8, !tbaa !8
  %102 = getelementptr inbounds nuw %struct.compobject, ptr %101, i32 0, i32 4
  store i8 %100, ptr %102, align 8, !tbaa !72
  %103 = load ptr, ptr %7, align 8, !tbaa !8
  %104 = getelementptr inbounds nuw %struct.compobject, ptr %103, i32 0, i32 5
  store i8 1, ptr %104, align 1, !tbaa !71
  %105 = load ptr, ptr %4, align 8, !tbaa !8
  %106 = getelementptr inbounds nuw %struct.compobject, ptr %105, i32 0, i32 7
  %107 = load ptr, ptr %106, align 8, !tbaa !76
  call void @PyThread_release_lock(ptr noundef %107)
  %108 = load ptr, ptr %7, align 8, !tbaa !8
  store ptr %108, ptr %3, align 8
  store i32 1, ptr %8, align 4
  br label %114

109:                                              ; preds = %53, %51, %49
  %110 = load ptr, ptr %4, align 8, !tbaa !8
  %111 = getelementptr inbounds nuw %struct.compobject, ptr %110, i32 0, i32 7
  %112 = load ptr, ptr %111, align 8, !tbaa !76
  call void @PyThread_release_lock(ptr noundef %112)
  %113 = load ptr, ptr %7, align 8, !tbaa !8
  call void @Py_XDECREF(ptr noundef %113)
  store ptr null, ptr %3, align 8
  store i32 1, ptr %8, align 4
  br label %114

114:                                              ; preds = %109, %97
  call void @llvm.lifetime.end.p0(i64 4, ptr %10) #7
  br label %115

115:                                              ; preds = %114, %25
  call void @llvm.lifetime.end.p0(i64 8, ptr %7) #7
  call void @llvm.lifetime.end.p0(i64 8, ptr %6) #7
  %116 = load ptr, ptr %3, align 8
  ret ptr %116
}