; Function Attrs: nounwind uwtable
define internal fastcc ptr @zlib_Compress_copy_impl(ptr noundef %0, ptr noundef %1) unnamed_addr #0 {
  %3 = tail call ptr @PyType_GetModuleState(ptr noundef %1) #7
  %4 = load ptr, ptr %3, align 8, !tbaa !3
  %5 = tail call fastcc ptr @newcompobject(ptr noundef %4)
  %.not = icmp eq ptr %5, null
  br i1 %.not, label %Py_XDECREF.exit47, label %6

6:                                                ; preds = %2
  %7 = getelementptr inbounds nuw i8, ptr %0, i64 160
  %8 = load ptr, ptr %7, align 8, !tbaa !66
  %9 = tail call i32 @PyThread_acquire_lock(ptr noundef %8, i32 noundef 0) #7
  %.not35 = icmp eq i32 %9, 0
  br i1 %.not35, label %10, label %14

10:                                               ; preds = %6
  %11 = tail call ptr @PyEval_SaveThread() #7
  %12 = load ptr, ptr %7, align 8, !tbaa !66
  %13 = tail call i32 @PyThread_acquire_lock(ptr noundef %12, i32 noundef 1) #7
  tail call void @PyEval_RestoreThread(ptr noundef %11) #7
  br label %14

14:                                               ; preds = %10, %6
  %15 = getelementptr inbounds nuw i8, ptr %5, i64 16
  %16 = getelementptr inbounds nuw i8, ptr %0, i64 16
  %17 = tail call i32 @deflateCopy(ptr noundef nonnull %15, ptr noundef nonnull %16) #7
  switch i32 %17, label %22 [
    i32 0, label %36
    i32 -2, label %18
    i32 -4, label %20
  ]

18:                                               ; preds = %14
  %19 = load ptr, ptr @PyExc_ValueError, align 8, !tbaa !15
  tail call void @PyErr_SetString(ptr noundef %19, ptr noundef nonnull @.str.83) #7
  br label %85

20:                                               ; preds = %14
  %21 = load ptr, ptr @PyExc_MemoryError, align 8, !tbaa !15
  tail call void @PyErr_SetString(ptr noundef %21, ptr noundef nonnull @.str.30) #7
  br label %85

22:                                               ; preds = %14
  %23 = getelementptr i8, ptr %0, i64 64
  %.val = load ptr, ptr %23, align 8
  %.not.i = icmp eq i32 %17, -6
  %.0.i = select i1 %.not.i, ptr @.str.16, ptr %.val
  %24 = icmp eq ptr %.0.i, null
  br i1 %24, label %25, label %32

25:                                               ; preds = %22
  switch i32 %17, label %28 [
    i32 -5, label %32
    i32 -2, label %26
    i32 -3, label %27
  ]

26:                                               ; preds = %25
  br label %32

27:                                               ; preds = %25
  br label %32

28:                                               ; preds = %25
  %29 = getelementptr inbounds nuw i8, ptr %3, i64 24
  %30 = load ptr, ptr %29, align 8, !tbaa !12
  %31 = tail call ptr (ptr, ptr, ...) @PyErr_Format(ptr noundef %30, ptr noundef nonnull @.str.20, i32 noundef %17, ptr noundef nonnull @.str.84) #7
  br label %85

32:                                               ; preds = %27, %26, %25, %22
  %.1.ph.i = phi ptr [ %.0.i, %22 ], [ @.str.18, %26 ], [ @.str.19, %27 ], [ @.str.17, %25 ]
  %33 = getelementptr inbounds nuw i8, ptr %3, i64 24
  %34 = load ptr, ptr %33, align 8, !tbaa !12
  %35 = tail call ptr (ptr, ptr, ...) @PyErr_Format(ptr noundef %34, ptr noundef nonnull @.str.21, i32 noundef %17, ptr noundef nonnull @.str.84, ptr noundef nonnull %.1.ph.i) #7
  br label %85

36:                                               ; preds = %14
  %37 = getelementptr inbounds nuw i8, ptr %5, i64 128
  %38 = load ptr, ptr %37, align 8, !tbaa !15
  %39 = getelementptr inbounds nuw i8, ptr %0, i64 128
  %40 = load ptr, ptr %39, align 8, !tbaa !64
  %41 = load i32, ptr %40, align 8, !tbaa !14
  %42 = icmp slt i32 %41, 0
  br i1 %42, label %_Py_NewRef.exit, label %43

43:                                               ; preds = %36
  %44 = add nuw i32 %41, 1
  store i32 %44, ptr %40, align 8, !tbaa !14
  br label %_Py_NewRef.exit

_Py_NewRef.exit:                                  ; preds = %36, %43
  store ptr %40, ptr %37, align 8, !tbaa !15
  %.not.i36 = icmp eq ptr %38, null
  br i1 %.not.i36, label %Py_XDECREF.exit, label %45

45:                                               ; preds = %_Py_NewRef.exit
  %46 = load i32, ptr %38, align 8, !tbaa !14
  %.not.i.i = icmp sgt i32 %46, -1
  br i1 %.not.i.i, label %47, label %Py_XDECREF.exit

47:                                               ; preds = %45
  %48 = add nsw i32 %46, -1
  store i32 %48, ptr %38, align 8, !tbaa !14
  %49 = icmp eq i32 %48, 0
  br i1 %49, label %50, label %Py_XDECREF.exit

50:                                               ; preds = %47
  tail call void @_Py_Dealloc(ptr noundef nonnull %38) #7
  br label %Py_XDECREF.exit

Py_XDECREF.exit:                                  ; preds = %_Py_NewRef.exit, %45, %47, %50
  %51 = getelementptr inbounds nuw i8, ptr %5, i64 136
  %52 = load ptr, ptr %51, align 8, !tbaa !15
  %53 = getelementptr inbounds nuw i8, ptr %0, i64 136
  %54 = load ptr, ptr %53, align 8, !tbaa !65
  %55 = load i32, ptr %54, align 8, !tbaa !14
  %56 = icmp slt i32 %55, 0
  br i1 %56, label %_Py_NewRef.exit37, label %57

57:                                               ; preds = %Py_XDECREF.exit
  %58 = add nuw i32 %55, 1
  store i32 %58, ptr %54, align 8, !tbaa !14
  br label %_Py_NewRef.exit37

_Py_NewRef.exit37:                                ; preds = %Py_XDECREF.exit, %57
  store ptr %54, ptr %51, align 8, !tbaa !15
  %.not.i38 = icmp eq ptr %52, null
  br i1 %.not.i38, label %Py_XDECREF.exit40, label %59

59:                                               ; preds = %_Py_NewRef.exit37
  %60 = load i32, ptr %52, align 8, !tbaa !14
  %.not.i.i39 = icmp sgt i32 %60, -1
  br i1 %.not.i.i39, label %61, label %Py_XDECREF.exit40

61:                                               ; preds = %59
  %62 = add nsw i32 %60, -1
  store i32 %62, ptr %52, align 8, !tbaa !14
  %63 = icmp eq i32 %62, 0
  br i1 %63, label %64, label %Py_XDECREF.exit40

64:                                               ; preds = %61
  tail call void @_Py_Dealloc(ptr noundef nonnull %52) #7
  br label %Py_XDECREF.exit40

Py_XDECREF.exit40:                                ; preds = %_Py_NewRef.exit37, %59, %61, %64
  %65 = getelementptr inbounds nuw i8, ptr %5, i64 152
  %66 = load ptr, ptr %65, align 8, !tbaa !15
  %67 = getelementptr inbounds nuw i8, ptr %0, i64 152
  %68 = load ptr, ptr %67, align 8, !tbaa !60
  %.not.i.i41 = icmp eq ptr %68, null
  br i1 %.not.i.i41, label %_Py_XNewRef.exit, label %69

69:                                               ; preds = %Py_XDECREF.exit40
  %70 = load i32, ptr %68, align 8, !tbaa !14
  %71 = icmp slt i32 %70, 0
  br i1 %71, label %_Py_XNewRef.exit, label %72

72:                                               ; preds = %69
  %73 = add nuw i32 %70, 1
  store i32 %73, ptr %68, align 8, !tbaa !14
  br label %_Py_XNewRef.exit

_Py_XNewRef.exit:                                 ; preds = %Py_XDECREF.exit40, %69, %72
  store ptr %68, ptr %65, align 8, !tbaa !15
  %.not.i42 = icmp eq ptr %66, null
  br i1 %.not.i42, label %Py_XDECREF.exit44, label %74

74:                                               ; preds = %_Py_XNewRef.exit
  %75 = load i32, ptr %66, align 8, !tbaa !14
  %.not.i.i43 = icmp sgt i32 %75, -1
  br i1 %.not.i.i43, label %76, label %Py_XDECREF.exit44

76:                                               ; preds = %74
  %77 = add nsw i32 %75, -1
  store i32 %77, ptr %66, align 8, !tbaa !14
  %78 = icmp eq i32 %77, 0
  br i1 %78, label %79, label %Py_XDECREF.exit44

79:                                               ; preds = %76
  tail call void @_Py_Dealloc(ptr noundef nonnull %66) #7
  br label %Py_XDECREF.exit44

Py_XDECREF.exit44:                                ; preds = %_Py_XNewRef.exit, %74, %76, %79
  %80 = getelementptr inbounds nuw i8, ptr %0, i64 144
  %81 = load i8, ptr %80, align 8, !tbaa !63
  %82 = getelementptr inbounds nuw i8, ptr %5, i64 144
  store i8 %81, ptr %82, align 8, !tbaa !63
  %83 = getelementptr inbounds nuw i8, ptr %5, i64 145
  store i8 1, ptr %83, align 1, !tbaa !55
  %84 = load ptr, ptr %7, align 8, !tbaa !66
  tail call void @PyThread_release_lock(ptr noundef %84) #7
  br label %Py_XDECREF.exit47

85:                                               ; preds = %18, %20, %28, %32
  %86 = load ptr, ptr %7, align 8, !tbaa !66
  tail call void @PyThread_release_lock(ptr noundef %86) #7
  %87 = load i32, ptr %5, align 8, !tbaa !14
  %.not.i.i46 = icmp sgt i32 %87, -1
  br i1 %.not.i.i46, label %88, label %Py_XDECREF.exit47

88:                                               ; preds = %85
  %89 = add nsw i32 %87, -1
  store i32 %89, ptr %5, align 8, !tbaa !14
  %90 = icmp eq i32 %89, 0
  br i1 %90, label %91, label %Py_XDECREF.exit47

91:                                               ; preds = %88
  tail call void @_Py_Dealloc(ptr noundef nonnull %5) #7
  br label %Py_XDECREF.exit47

Py_XDECREF.exit47:                                ; preds = %91, %88, %85, %Py_XDECREF.exit44, %2
  %.0 = phi ptr [ null, %2 ], [ %5, %Py_XDECREF.exit44 ], [ null, %85 ], [ null, %88 ], [ null, %91 ]
  ret ptr %.0
}